; Function Attrs: mustprogress uwtable
define void @_ZN2cv3hal19cvtTwoPlaneYUVtoBGREPKhS2_mPhmiiibi(ptr noundef %0, ptr noundef %1, i64 noundef %2, ptr noundef %3, i64 noundef %4, i32 noundef %5, i32 noundef %6, i32 noundef %7, i1 noundef zeroext %8, i32 noundef %9) local_unnamed_addr #0 personality ptr @__gxx_personality_v0 {
  %11 = alloca %"class.cv::utils::trace::details::Region", align 8
  %12 = alloca %"class.cv::utils::trace::details::Region", align 8
  call void @_ZN2cv5utils5trace7details6RegionC1ERKNS3_21LocationStaticStorageE(ptr noundef nonnull align 8 dereferenceable(12) %12, ptr noundef nonnull align 8 dereferenceable(32) @_ZZN2cv3hal19cvtTwoPlaneYUVtoBGREPKhS2_mPhmiiibiE25__cv_trace_location_fn143)
  call void @llvm.lifetime.start.p0(i64 16, ptr nonnull %11)
  invoke void @_ZN2cv5utils5trace7details6RegionC1ERKNS3_21LocationStaticStorageE(ptr noundef nonnull align 8 dereferenceable(12) %11, ptr noundef nonnull align 8 dereferenceable(32) @_ZZN2cv3hal19cvtTwoPlaneYUVtoBGREPKhmS2_mPhmiiibiE25__cv_trace_location_fn156)
          to label %.noexc unwind label %29

.noexc:                                           ; preds = %10
  invoke void @_ZN2cv3hal12cpu_baseline19cvtTwoPlaneYUVtoBGREPKhmS3_mPhmiiibi(ptr noundef %0, i64 noundef %2, ptr noundef %1, i64 noundef %2, ptr noundef %3, i64 noundef %4, i32 noundef %5, i32 noundef %6, i32 noundef %7, i1 noundef zeroext %8, i32 noundef %9)
          to label %13 unwind label %20

13:                                               ; preds = %.noexc
  %14 = getelementptr inbounds i8, ptr %11, i64 8
  %15 = load i32, ptr %14, align 8
  %.not.i.i = icmp eq i32 %15, 0
  br i1 %.not.i.i, label %22, label %16

16:                                               ; preds = %13
  invoke void @_ZN2cv5utils5trace7details6Region7destroyEv(ptr noundef nonnull align 8 dereferenceable(12) %11)
          to label %22 unwind label %17

17:                                               ; preds = %16
  %18 = landingpad { ptr, i32 }
          catch ptr null
  %19 = extractvalue { ptr, i32 } %18, 0
  call void @__clang_call_terminate(ptr %19) #13
  unreachable

20:                                               ; preds = %.noexc
  %21 = landingpad { ptr, i32 }
          cleanup
  call void @_ZN2cv5utils5trace7details6RegionD2Ev(ptr noundef nonnull align 8 dereferenceable(12) %11) #12
  br label %.body

22:                                               ; preds = %16, %13
  call void @llvm.lifetime.end.p0(i64 16, ptr nonnull %11)
  %23 = getelementptr inbounds i8, ptr %12, i64 8
  %24 = load i32, ptr %23, align 8
  %.not.i = icmp eq i32 %24, 0
  br i1 %.not.i, label %_ZN2cv5utils5trace7details6RegionD2Ev.exit, label %25

25:                                               ; preds = %22
  invoke void @_ZN2cv5utils5trace7details6Region7destroyEv(ptr noundef nonnull align 8 dereferenceable(12) %12)
          to label %_ZN2cv5utils5trace7details6RegionD2Ev.exit unwind label %26

26:                                               ; preds = %25
  %27 = landingpad { ptr, i32 }
          catch ptr null
  %28 = extractvalue { ptr, i32 } %27, 0
  call void @__clang_call_terminate(ptr %28) #13
  unreachable

_ZN2cv5utils5trace7details6RegionD2Ev.exit:       ; preds = %22, %25
  ret void

29:                                               ; preds = %10
  %30 = landingpad { ptr, i32 }
          cleanup
  br label %.body

.body:                                            ; preds = %20, %29
  %eh.lpad-body = phi { ptr, i32 } [ %30, %29 ], [ %21, %20 ]
  call void @_ZN2cv5utils5trace7details6RegionD2Ev(ptr noundef nonnull align 8 dereferenceable(12) %12) #12
  resume { ptr, i32 } %eh.lpad-body
}